target datalayout = "e-m:e-p270:32:32-p271:32:32-p272:64:64-i64:64-i128:128-f80:128-n8:16:32:64-S128"
target triple = "x86_64-pc-linux-gnu"

%struct.repository = type { ptr, ptr, ptr, ptr, ptr, %struct.strmap, %struct.strmap, %struct.repo_path_cache, ptr, ptr, ptr, ptr, %struct.repo_settings, ptr, ptr, ptr, ptr, ptr, ptr, i32, i32, i32, ptr, ptr, i32, i32, i8 }
%struct.strmap = type { %struct.hashmap, ptr, i8 }
%struct.hashmap = type { ptr, ptr, ptr, i32, i32, i32, i32, i8 }
%struct.repo_path_cache = type { ptr, ptr, ptr, ptr, ptr, ptr, ptr }
%struct.repo_settings = type { i32, i32, i32, i32, i32, i32, i32, i32, i32, i32, i32, i32, ptr, i32, i32, i32, i32, i32, i32, i32, i64, i64, i64 }
%struct.parsed_object_pool = type { ptr, ptr, i32, i32, ptr, ptr, ptr, ptr, ptr, ptr, i32, i32, i32, ptr, ptr, i32, i32, ptr }

@.str = private unnamed_addr constant [10 x i8] c"shallow.c\00", align 1
@.str.1 = private unnamed_addr constant [75 x i8] c"is_repository_shallow must not be called before set_alternate_shallow_file\00", align 1

; Function Attrs: inlinehint nounwind uwtable
define internal ptr @xstrdup_or_null(ptr noundef %0) #3 {
  %2 = alloca ptr, align 8
  store ptr %0, ptr %2, align 8, !tbaa !9
  %3 = load ptr, ptr %2, align 8, !tbaa !9
  %4 = icmp ne ptr %3, null
  br i1 %4, label %5, label %8

5:                                                ; preds = %1
  %6 = load ptr, ptr %2, align 8, !tbaa !9
  %7 = call ptr @xstrdup(ptr noundef %6)
  br label %9

8:                                                ; preds = %1
  br label %9

9:                                                ; preds = %8, %5
  %10 = phi ptr [ %7, %5 ], [ null, %8 ]
  ret ptr %10
}

; Function Attrs: nounwind uwtable
define dso_local void @set_alternate_shallow_file(ptr noundef %0, ptr noundef %1, i32 noundef %2) #0 {
  %4 = alloca ptr, align 8
  %5 = alloca ptr, align 8
  %6 = alloca i32, align 4
  store ptr %0, ptr %4, align 8, !tbaa !4
  store ptr %1, ptr %5, align 8, !tbaa !9
  store i32 %2, ptr %6, align 4, !tbaa !11
  %7 = load ptr, ptr %4, align 8, !tbaa !4
  %8 = getelementptr inbounds nuw %struct.repository, ptr %7, i32 0, i32 3
  %9 = load ptr, ptr %8, align 8, !tbaa !13
  %10 = getelementptr inbounds nuw %struct.parsed_object_pool, ptr %9, i32 0, i32 12
  %11 = load i32, ptr %10, align 8, !tbaa !32
  %12 = icmp ne i32 %11, -1
  br i1 %12, label %13, label %14

13:                                               ; preds = %3
  call void (ptr, i32, ptr, ...) @BUG_fl(ptr noundef @.str, i32 noundef 27, ptr noundef @.str.1) #11
  unreachable

14:                                               ; preds = %3
  %15 = load ptr, ptr %4, align 8, !tbaa !4
  %16 = getelementptr inbounds nuw %struct.repository, ptr %15, i32 0, i32 3
  %17 = load ptr, ptr %16, align 8, !tbaa !13
  %18 = getelementptr inbounds nuw %struct.parsed_object_pool, ptr %17, i32 0, i32 14
  %19 = load ptr, ptr %18, align 8, !tbaa !39
  %20 = icmp ne ptr %19, null
  br i1 %20, label %21, label %25

21:                                               ; preds = %14
  %22 = load i32, ptr %6, align 4, !tbaa !11
  %23 = icmp ne i32 %22, 0
  br i1 %23, label %25, label %24

24:                                               ; preds = %21
  br label %37

25:                                               ; preds = %21, %14
  %26 = load ptr, ptr %4, align 8, !tbaa !4
  %27 = getelementptr inbounds nuw %struct.repository, ptr %26, i32 0, i32 3
  %28 = load ptr, ptr %27, align 8, !tbaa !13
  %29 = getelementptr inbounds nuw %struct.parsed_object_pool, ptr %28, i32 0, i32 14
  %30 = load ptr, ptr %29, align 8, !tbaa !39
  call void @free(ptr noundef %30) #12
  %31 = load ptr, ptr %5, align 8, !tbaa !9
  %32 = call ptr @xstrdup_or_null(ptr noundef %31)
  %33 = load ptr, ptr %4, align 8, !tbaa !4
  %34 = getelementptr inbounds nuw %struct.repository, ptr %33, i32 0, i32 3
  %35 = load ptr, ptr %34, align 8, !tbaa !13
  %36 = getelementptr inbounds nuw %struct.parsed_object_pool, ptr %35, i32 0, i32 14
  store ptr %32, ptr %36, align 8, !tbaa !39
  br label %37

37:                                               ; preds = %25, %24
  ret void
}