; Function Attrs: nounwind uwtable
define dso_local void @set_alternate_shallow_file(ptr noundef readonly captures(none) %0, ptr noundef %1, i32 noundef %2) local_unnamed_addr #0 {
  %4 = getelementptr inbounds nuw i8, ptr %0, i64 24
  %5 = load ptr, ptr %4, align 8, !tbaa !4
  %6 = getelementptr inbounds nuw i8, ptr %5, i64 80
  %7 = load i32, ptr %6, align 8, !tbaa !28
  %.not = icmp eq i32 %7, -1
  br i1 %.not, label %9, label %8

8:                                                ; preds = %3
  tail call void (ptr, i32, ptr, ...) @BUG_fl(ptr noundef nonnull @.str, i32 noundef 27, ptr noundef nonnull @.str.1) #14
  unreachable

9:                                                ; preds = %3
  %10 = getelementptr inbounds nuw i8, ptr %5, i64 96
  %11 = load ptr, ptr %10, align 8, !tbaa !36
  %12 = icmp eq ptr %11, null
  %13 = icmp ne i32 %2, 0
  %or.cond = or i1 %13, %12
  br i1 %or.cond, label %14, label %20

14:                                               ; preds = %9
  tail call void @free(ptr noundef %11) #15
  %.not.i = icmp eq ptr %1, null
  br i1 %.not.i, label %xstrdup_or_null.exit, label %15

15:                                               ; preds = %14
  %16 = tail call ptr @xstrdup(ptr noundef nonnull %1) #15
  br label %xstrdup_or_null.exit

xstrdup_or_null.exit:                             ; preds = %14, %15
  %17 = phi ptr [ %16, %15 ], [ null, %14 ]
  %18 = load ptr, ptr %4, align 8, !tbaa !4
  %19 = getelementptr inbounds nuw i8, ptr %18, i64 96
  store ptr %17, ptr %19, align 8, !tbaa !36
  br label %20

20:                                               ; preds = %9, %xstrdup_or_null.exit
  ret void
}